target datalayout = "e-m:e-p270:32:32-p271:32:32-p272:64:64-i64:64-i128:128-f80:128-n8:16:32:64-S128"
target triple = "x86_64-pc-linux-gnu"

@.str = private unnamed_addr constant [1 x i8] zeroinitializer, align 1

; Function Attrs: null_pointer_is_valid sspstrong uwtable
define noalias ptr @wmem_strjoinv(ptr noundef %0, ptr noundef %1, ptr noundef %2) #0 {
  %4 = alloca ptr, align 8
  %5 = alloca ptr, align 8
  %6 = alloca ptr, align 8
  %7 = alloca ptr, align 8
  %8 = alloca i32, align 4
  %9 = alloca ptr, align 8
  %10 = alloca i64, align 8
  %11 = alloca i64, align 8
  store ptr %0, ptr %4, align 8
  store ptr %1, ptr %5, align 8
  store ptr %2, ptr %6, align 8
  call void @llvm.lifetime.start.p0(i64 8, ptr %7) #15
  store ptr null, ptr %7, align 8
  br label %12

12:                                               ; preds = %3
  br label %13

13:                                               ; preds = %12
  br label %14

14:                                               ; preds = %13
  %15 = load ptr, ptr %5, align 8
  %16 = icmp eq ptr %15, null
  br i1 %16, label %17, label %18

17:                                               ; preds = %14
  store ptr @.str, ptr %5, align 8
  br label %18

18:                                               ; preds = %17, %14
  %19 = load ptr, ptr %6, align 8
  %20 = getelementptr ptr, ptr %19, i64 0
  %21 = load ptr, ptr %20, align 8
  %22 = icmp ne ptr %21, null
  br i1 %22, label %23, label %84

23:                                               ; preds = %18
  call void @llvm.lifetime.start.p0(i64 4, ptr %8) #15
  call void @llvm.lifetime.start.p0(i64 8, ptr %9) #15
  call void @llvm.lifetime.start.p0(i64 8, ptr %10) #15
  call void @llvm.lifetime.start.p0(i64 8, ptr %11) #15
  %24 = load ptr, ptr %5, align 8
  %25 = call i64 @strlen(ptr noundef %24) #16
  store i64 %25, ptr %11, align 8
  %26 = load ptr, ptr %6, align 8
  %27 = getelementptr ptr, ptr %26, i64 0
  %28 = load ptr, ptr %27, align 8
  %29 = call i64 @strlen(ptr noundef %28) #16
  %30 = add i64 1, %29
  store i64 %30, ptr %10, align 8
  store i32 1, ptr %8, align 4
  br label %31

31:                                               ; preds = %50, %23
  %32 = load ptr, ptr %6, align 8
  %33 = load i32, ptr %8, align 4
  %34 = sext i32 %33 to i64
  %35 = getelementptr ptr, ptr %32, i64 %34
  %36 = load ptr, ptr %35, align 8
  %37 = icmp ne ptr %36, null
  br i1 %37, label %38, label %53

38:                                               ; preds = %31
  %39 = load i64, ptr %11, align 8
  %40 = load i64, ptr %10, align 8
  %41 = add i64 %40, %39
  store i64 %41, ptr %10, align 8
  %42 = load ptr, ptr %6, align 8
  %43 = load i32, ptr %8, align 4
  %44 = sext i32 %43 to i64
  %45 = getelementptr ptr, ptr %42, i64 %44
  %46 = load ptr, ptr %45, align 8
  %47 = call i64 @strlen(ptr noundef %46) #16
  %48 = load i64, ptr %10, align 8
  %49 = add i64 %48, %47
  store i64 %49, ptr %10, align 8
  br label %50

50:                                               ; preds = %38
  %51 = load i32, ptr %8, align 4
  %52 = add i32 %51, 1
  store i32 %52, ptr %8, align 4
  br label %31, !llvm.loop !11

53:                                               ; preds = %31
  %54 = load ptr, ptr %4, align 8
  %55 = load i64, ptr %10, align 8
  %56 = call noalias ptr @wmem_alloc(ptr noundef %54, i64 noundef %55) #17
  store ptr %56, ptr %7, align 8
  %57 = load ptr, ptr %7, align 8
  %58 = load ptr, ptr %6, align 8
  %59 = getelementptr ptr, ptr %58, i64 0
  %60 = load ptr, ptr %59, align 8
  %61 = call ptr @g_stpcpy(ptr noundef %57, ptr noundef %60)
  store ptr %61, ptr %9, align 8
  store i32 1, ptr %8, align 4
  br label %62

62:                                               ; preds = %80, %53
  %63 = load ptr, ptr %6, align 8
  %64 = load i32, ptr %8, align 4
  %65 = sext i32 %64 to i64
  %66 = getelementptr ptr, ptr %63, i64 %65
  %67 = load ptr, ptr %66, align 8
  %68 = icmp ne ptr %67, null
  br i1 %68, label %69, label %83

69:                                               ; preds = %62
  %70 = load ptr, ptr %9, align 8
  %71 = load ptr, ptr %5, align 8
  %72 = call ptr @g_stpcpy(ptr noundef %70, ptr noundef %71)
  store ptr %72, ptr %9, align 8
  %73 = load ptr, ptr %9, align 8
  %74 = load ptr, ptr %6, align 8
  %75 = load i32, ptr %8, align 4
  %76 = sext i32 %75 to i64
  %77 = getelementptr ptr, ptr %74, i64 %76
  %78 = load ptr, ptr %77, align 8
  %79 = call ptr @g_stpcpy(ptr noundef %73, ptr noundef %78)
  store ptr %79, ptr %9, align 8
  br label %80

80:                                               ; preds = %69
  %81 = load i32, ptr %8, align 4
  %82 = add i32 %81, 1
  store i32 %82, ptr %8, align 4
  br label %62, !llvm.loop !12

83:                                               ; preds = %62
  call void @llvm.lifetime.end.p0(i64 8, ptr %11) #15
  call void @llvm.lifetime.end.p0(i64 8, ptr %10) #15
  call void @llvm.lifetime.end.p0(i64 8, ptr %9) #15
  call void @llvm.lifetime.end.p0(i64 4, ptr %8) #15
  br label %87

84:                                               ; preds = %18
  %85 = load ptr, ptr %4, align 8
  %86 = call noalias ptr @wmem_strdup(ptr noundef %85, ptr noundef @.str)
  store ptr %86, ptr %7, align 8
  br label %87

87:                                               ; preds = %84, %83
  %88 = load ptr, ptr %7, align 8
  call void @llvm.lifetime.end.p0(i64 8, ptr %7) #15
  ret ptr %88
}