; Function Attrs: null_pointer_is_valid sspstrong uwtable
define noalias ptr @wmem_strjoinv(ptr noundef %0, ptr noundef %1, ptr noundef readonly captures(none) %2) local_unnamed_addr #0 {
  %4 = icmp eq ptr %1, null
  %spec.store.select = select i1 %4, ptr @.str, ptr %1
  %5 = load ptr, ptr %2, align 8
  %.not = icmp eq ptr %5, null
  br i1 %.not, label %32, label %6

6:                                                ; preds = %3
  %7 = tail call i64 @strlen(ptr noundef nonnull dereferenceable(1) %spec.store.select) #24
  %8 = tail call i64 @strlen(ptr noundef nonnull dereferenceable(1) %5) #24
  %9 = add i64 %8, 1
  %10 = getelementptr i8, ptr %2, i64 8
  %11 = load ptr, ptr %10, align 8
  %.not3032 = icmp eq ptr %11, null
  br i1 %.not3032, label %._crit_edge, label %.lr.ph

.lr.ph:                                           ; preds = %6, %.lr.ph
  %12 = phi ptr [ %19, %.lr.ph ], [ %11, %6 ]
  %.034 = phi i64 [ %15, %.lr.ph ], [ %9, %6 ]
  %.02633 = phi i32 [ %16, %.lr.ph ], [ 1, %6 ]
  %13 = add i64 %.034, %7
  %14 = tail call i64 @strlen(ptr noundef nonnull dereferenceable(1) %12) #24
  %15 = add i64 %13, %14
  %16 = add i32 %.02633, 1
  %17 = sext i32 %16 to i64
  %18 = getelementptr ptr, ptr %2, i64 %17
  %19 = load ptr, ptr %18, align 8
  %.not30 = icmp eq ptr %19, null
  br i1 %.not30, label %._crit_edge, label %.lr.ph, !llvm.loop !11

._crit_edge:                                      ; preds = %.lr.ph, %6
  %.0.lcssa = phi i64 [ %9, %6 ], [ %15, %.lr.ph ]
  %20 = tail call noalias ptr @wmem_alloc(ptr noundef %0, i64 noundef %.0.lcssa) #25
  %21 = load ptr, ptr %2, align 8
  %22 = tail call ptr @g_stpcpy(ptr noundef %20, ptr noundef %21)
  %23 = load ptr, ptr %10, align 8
  %.not3135 = icmp eq ptr %23, null
  br i1 %.not3135, label %.loopexit, label %.lr.ph39

.lr.ph39:                                         ; preds = %._crit_edge, %.lr.ph39
  %24 = phi ptr [ %30, %.lr.ph39 ], [ %10, %._crit_edge ]
  %.02537 = phi ptr [ %27, %.lr.ph39 ], [ %22, %._crit_edge ]
  %.136 = phi i32 [ %28, %.lr.ph39 ], [ 1, %._crit_edge ]
  %25 = tail call ptr @g_stpcpy(ptr noundef %.02537, ptr noundef nonnull %spec.store.select)
  %26 = load ptr, ptr %24, align 8
  %27 = tail call ptr @g_stpcpy(ptr noundef %25, ptr noundef %26)
  %28 = add i32 %.136, 1
  %29 = sext i32 %28 to i64
  %30 = getelementptr ptr, ptr %2, i64 %29
  %31 = load ptr, ptr %30, align 8
  %.not31 = icmp eq ptr %31, null
  br i1 %.not31, label %.loopexit, label %.lr.ph39, !llvm.loop !12

32:                                               ; preds = %3
  %33 = tail call noalias ptr @wmem_strdup(ptr noundef %0, ptr noundef nonnull @.str)
  br label %.loopexit

.loopexit:                                        ; preds = %.lr.ph39, %._crit_edge, %32
  %.027 = phi ptr [ %33, %32 ], [ %20, %._crit_edge ], [ %20, %.lr.ph39 ]
  ret ptr %.027
}